; Function Attrs: mustprogress uwtable
define internal fastcc noundef float @_ZN4pbrt12_GLOBAL__N_114ElapsedSecondsEv() unnamed_addr #4 personality ptr @__gxx_personality_v0 {
  %1 = tail call noundef i32 @pthread_mutex_lock(ptr noundef nonnull align 8 dereferenceable(40) @_ZZN4pbrt12_GLOBAL__N_114ElapsedSecondsEvE5mutex) #24
  %.not.i.i = icmp eq i32 %1, 0
  br i1 %.not.i.i, label %_ZNSt10lock_guardISt5mutexEC2ERS0_.exit, label %2

2:                                                ; preds = %0
  tail call void @_ZSt20__throw_system_errori(i32 noundef %1) #26
  unreachable

_ZNSt10lock_guardISt5mutexEC2ERS0_.exit:          ; preds = %0
  %3 = load atomic i8, ptr @_ZGVZN4pbrt12_GLOBAL__N_114ElapsedSecondsEvE5start acquire, align 8
  %4 = icmp eq i8 %3, 0
  br i1 %4, label %5, label %9, !prof !39

5:                                                ; preds = %_ZNSt10lock_guardISt5mutexEC2ERS0_.exit
  %6 = tail call i32 @__cxa_guard_acquire(ptr nonnull @_ZGVZN4pbrt12_GLOBAL__N_114ElapsedSecondsEvE5start) #24
  %.not = icmp eq i32 %6, 0
  br i1 %.not, label %9, label %7

7:                                                ; preds = %5
  %8 = tail call i64 @_ZNSt6chrono3_V212steady_clock3nowEv() #24
  store i64 %8, ptr @_ZZN4pbrt12_GLOBAL__N_114ElapsedSecondsEvE5start.0, align 8
  tail call void @__cxa_guard_release(ptr nonnull @_ZGVZN4pbrt12_GLOBAL__N_114ElapsedSecondsEvE5start) #24
  br label %9

9:                                                ; preds = %7, %5, %_ZNSt10lock_guardISt5mutexEC2ERS0_.exit
  %10 = tail call i64 @_ZNSt6chrono3_V212steady_clock3nowEv() #24
  %.sroa.0.0.copyload.i2.i = load i64, ptr @_ZZN4pbrt12_GLOBAL__N_114ElapsedSecondsEvE5start.0, align 8, !tbaa !4
  %11 = sub nsw i64 %10, %.sroa.0.0.copyload.i2.i
  %12 = sdiv i64 %11, 1000
  %13 = sitofp i64 %12 to double
  %14 = fdiv double %13, 1.000000e+06
  %15 = fptrunc double %14 to float
  %16 = tail call noundef i32 @pthread_mutex_unlock(ptr noundef nonnull align 8 dereferenceable(40) @_ZZN4pbrt12_GLOBAL__N_114ElapsedSecondsEvE5mutex) #24
  ret float %15
}